; Function Attrs: mustprogress uwtable
define dso_local void @_ZN7doctest6detail13ResultBuilder18translateExceptionEv(ptr noundef nonnull align 8 captures(none) dereferenceable(144) initializes((41, 42), (56, 71)) %0) local_unnamed_addr #8 align 2 {
  %2 = alloca %"class.doctest::String", align 8
  %3 = getelementptr inbounds nuw i8, ptr %0, i64 41
  store i8 1, ptr %3, align 1, !tbaa !303
  call void @llvm.lifetime.start.p0(i64 24, ptr nonnull %2) #49
  call fastcc void @_ZN7doctest12_GLOBAL__N_124translateActiveExceptionEv(ptr dead_on_unwind noalias writable align 8 %2)
  %4 = getelementptr inbounds nuw i8, ptr %0, i64 48
  %5 = getelementptr inbounds nuw i8, ptr %0, i64 71
  %6 = load i8, ptr %5, align 1, !tbaa !38
  %7 = icmp sgt i8 %6, -1
  br i1 %7, label %_ZN7doctest6StringD2Ev.exit, label %8

8:                                                ; preds = %1
  %9 = load ptr, ptr %4, align 8, !tbaa !38
  %10 = icmp eq ptr %9, null
  br i1 %10, label %_ZN7doctest6StringD2Ev.exit, label %11

11:                                               ; preds = %8
  tail call void @_ZdaPv(ptr noundef nonnull %9) #48
  br label %_ZN7doctest6StringD2Ev.exit

_ZN7doctest6StringD2Ev.exit:                      ; preds = %1, %8, %11
  call void @llvm.memcpy.p0.p0.i64(ptr noundef nonnull align 8 dereferenceable(24) %4, ptr noundef nonnull align 8 dereferenceable(24) %2, i64 24, i1 false)
  call void @llvm.lifetime.end.p0(i64 24, ptr nonnull %2) #49
  ret void
}